target datalayout = "e-m:e-p270:32:32-p271:32:32-p272:64:64-i64:64-i128:128-f80:128-n8:16:32:64-S128"
target triple = "x86_64-unknown-linux-gnu"

%"class.llvh::sys::path::const_iterator" = type <{ %"class.llvh::StringRef", %"class.llvh::StringRef", i64, i32, [4 x i8] }>
%"class.llvh::StringRef" = type { ptr, i64 }

; Function Attrs: mustprogress nounwind uwtable
define hidden noundef i64 @_ZNK4llvh3sys4path14const_iteratormiERKS2_(ptr noundef nonnull align 8 dereferenceable(44) %this, ptr noundef nonnull align 8 dereferenceable(44) %RHS) #0 align 2 {
entry:
  %this.addr = alloca ptr, align 8
  %RHS.addr = alloca ptr, align 8
  store ptr %this, ptr %this.addr, align 8
  store ptr %RHS, ptr %RHS.addr, align 8
  %this1 = load ptr, ptr %this.addr, align 8
  %Position = getelementptr inbounds %"class.llvh::sys::path::const_iterator", ptr %this1, i32 0, i32 2
  %0 = load i64, ptr %Position, align 8
  %1 = load ptr, ptr %RHS.addr, align 8
  %Position2 = getelementptr inbounds %"class.llvh::sys::path::const_iterator", ptr %1, i32 0, i32 2
  %2 = load i64, ptr %Position2, align 8
  %sub = sub i64 %0, %2
  ret i64 %sub
}