; Function Attrs: mustprogress nofree norecurse nosync nounwind willreturn memory(argmem: read) uwtable
define hidden noundef i64 @_ZNK4llvh3sys4path14const_iteratormiERKS2_(ptr nocapture noundef nonnull readonly align 8 dereferenceable(44) %this, ptr nocapture noundef nonnull readonly align 8 dereferenceable(44) %RHS) local_unnamed_addr #6 align 2 {
entry:
  %Position = getelementptr inbounds i8, ptr %this, i64 32
  %0 = load i64, ptr %Position, align 8
  %Position2 = getelementptr inbounds i8, ptr %RHS, i64 32
  %1 = load i64, ptr %Position2, align 8
  %sub = sub i64 %0, %1
  ret i64 %sub
}